target datalayout = "e-m:e-p270:32:32-p271:32:32-p272:64:64-i64:64-i128:128-f80:128-n8:16:32:64-S128"
target triple = "x86_64-pc-linux-gnu"

%"struct.pxrInternal_v0_24__pxrReserved__::TfDebug::_Node" = type { %"struct.std::atomic.160" }
%"struct.std::atomic.160" = type { i32 }
%"class.pxrInternal_v0_24__pxrReserved__::HdChangeTracker" = type { ptr, %"class.pxrInternal_v0_24__pxrReserved__::TfHashMap", %"class.pxrInternal_v0_24__pxrReserved__::TfHashMap", %"class.pxrInternal_v0_24__pxrReserved__::TfHashMap", %"class.pxrInternal_v0_24__pxrReserved__::TfHashMap", %"class.pxrInternal_v0_24__pxrReserved__::TfHashMap", %"class.pxrInternal_v0_24__pxrReserved__::TfHashMap.2", %"class.pxrInternal_v0_24__pxrReserved__::TfHashMap.21", %"class.tbb::detail::d2::concurrent_hash_map", %"class.tbb::detail::d2::concurrent_hash_map", %"class.tbb::detail::d2::concurrent_hash_map", %"class.tbb::detail::d2::concurrent_hash_map", %"class.tbb::detail::d2::concurrent_hash_map", i32, i32, i32, i32, i32, i32, i32, i32, i32, i32, ptr }
%"class.pxrInternal_v0_24__pxrReserved__::TfHashMap" = type { %"class.std::unordered_map" }
%"class.std::unordered_map" = type { %"class.std::_Hashtable" }
%"class.std::_Hashtable" = type { ptr, i64, %"struct.std::__detail::_Hash_node_base", i64, %"struct.std::__detail::_Prime_rehash_policy", ptr }
%"struct.std::__detail::_Hash_node_base" = type { ptr }
%"struct.std::__detail::_Prime_rehash_policy" = type { float, i64 }
%"class.pxrInternal_v0_24__pxrReserved__::TfHashMap.2" = type { %"class.std::unordered_map.3" }
%"class.std::unordered_map.3" = type { %"class.std::_Hashtable.4" }
%"class.std::_Hashtable.4" = type { ptr, i64, %"struct.std::__detail::_Hash_node_base", i64, %"struct.std::__detail::_Prime_rehash_policy", ptr }
%"class.pxrInternal_v0_24__pxrReserved__::TfHashMap.21" = type { %"class.std::unordered_map.22" }
%"class.std::unordered_map.22" = type { %"class.std::_Hashtable.23" }
%"class.std::_Hashtable.23" = type { ptr, i64, %"struct.std::__detail::_Hash_node_base", i64, %"struct.std::__detail::_Prime_rehash_policy", ptr }
%"class.tbb::detail::d2::concurrent_hash_map" = type <{ %"class.tbb::detail::d2::hash_map_base", [8 x i8] }>
%"class.tbb::detail::d2::hash_map_base" = type { [8 x i8], %"struct.std::atomic", %"struct.std::atomic", [2 x %"struct.tbb::detail::d2::hash_map_base<tbb::detail::d1::tbb_allocator<std::pair<const pxrInternal_v0_24__pxrReserved__::SdfPath, std::set<pxrInternal_v0_24__pxrReserved__::SdfPath>>>, tbb::detail::d1::spin_rw_mutex>::bucket"], [64 x %"struct.std::atomic.40"] }
%"struct.std::atomic" = type { %"struct.std::__atomic_base" }
%"struct.std::__atomic_base" = type { i64 }
%"struct.tbb::detail::d2::hash_map_base<tbb::detail::d1::tbb_allocator<std::pair<const pxrInternal_v0_24__pxrReserved__::SdfPath, std::set<pxrInternal_v0_24__pxrReserved__::SdfPath>>>, tbb::detail::d1::spin_rw_mutex>::bucket" = type { %"class.tbb::detail::d1::spin_rw_mutex", %"struct.std::atomic.38" }
%"class.tbb::detail::d1::spin_rw_mutex" = type { %"struct.std::atomic.36" }
%"struct.std::atomic.36" = type { %"struct.std::__atomic_base.37" }
%"struct.std::__atomic_base.37" = type { i64 }
%"struct.std::atomic.38" = type { %"struct.std::__atomic_base.39" }
%"struct.std::__atomic_base.39" = type { ptr }
%"struct.std::atomic.40" = type { %"struct.std::__atomic_base.41" }
%"struct.std::__atomic_base.41" = type { ptr }

@.str.18 = private unnamed_addr constant [18 x i8] c"Task Removed: %s\0A\00", align 1
@_ZN32pxrInternal_v0_24__pxrReserved__7TfDebug5_DataINS_26HD_BPRIM_ADDED__DebugCodesEE5nodesE = linkonce_odr global [36 x %"struct.pxrInternal_v0_24__pxrReserved__::TfDebug::_Node"] zeroinitializer, comdat, align 16

; Function Attrs: mustprogress uwtable
define linkonce_odr noundef i64 @_ZNSt10_HashtableIN32pxrInternal_v0_24__pxrReserved__7SdfPathESt4pairIKS1_jESaIS4_ENSt8__detail10_Select1stESt8equal_toIS1_ENS1_4HashENS6_18_Mod_range_hashingENS6_20_Default_ranged_hashENS6_20_Prime_rehash_policyENS6_17_Hashtable_traitsILb1ELb0ELb1EEEE5eraseERS3_(ptr noundef nonnull align 8 dereferenceable(56) %0, ptr noundef nonnull align 4 dereferenceable(8) %1) #4 comdat align 2 {
  %3 = alloca ptr, align 8
  %4 = alloca ptr, align 8
  store ptr %0, ptr %3, align 8
  store ptr %1, ptr %4, align 8
  %5 = load ptr, ptr %3, align 8
  %6 = load ptr, ptr %4, align 8
  %7 = call noundef i64 @_ZNSt10_HashtableIN32pxrInternal_v0_24__pxrReserved__7SdfPathESt4pairIKS1_jESaIS4_ENSt8__detail10_Select1stESt8equal_toIS1_ENS1_4HashENS6_18_Mod_range_hashingENS6_20_Default_ranged_hashENS6_20_Prime_rehash_policyENS6_17_Hashtable_traitsILb1ELb0ELb1EEEE8_M_eraseESt17integral_constantIbLb1EERS3_(ptr noundef nonnull align 8 dereferenceable(56) %5, ptr noundef nonnull align 4 dereferenceable(8) %6)
  ret i64 %7
}

; Function Attrs: mustprogress uwtable
define linkonce_odr noundef i64 @_ZNSt13unordered_mapIN32pxrInternal_v0_24__pxrReserved__7SdfPathEjNS1_4HashESt8equal_toIS1_ESaISt4pairIKS1_jEEE5eraseERS6_(ptr noundef nonnull align 8 dereferenceable(56) %0, ptr noundef nonnull align 4 dereferenceable(8) %1) #4 comdat align 2 {
  %3 = alloca ptr, align 8
  %4 = alloca ptr, align 8
  store ptr %0, ptr %3, align 8
  store ptr %1, ptr %4, align 8
  %5 = load ptr, ptr %3, align 8
  %6 = getelementptr inbounds nuw %"class.std::unordered_map", ptr %5, i32 0, i32 0
  %7 = load ptr, ptr %4, align 8
  %8 = call noundef i64 @_ZNSt10_HashtableIN32pxrInternal_v0_24__pxrReserved__7SdfPathESt4pairIKS1_jESaIS4_ENSt8__detail10_Select1stESt8equal_toIS1_ENS1_4HashENS6_18_Mod_range_hashingENS6_20_Default_ranged_hashENS6_20_Prime_rehash_policyENS6_17_Hashtable_traitsILb1ELb0ELb1EEEE5eraseERS3_(ptr noundef nonnull align 8 dereferenceable(56) %6, ptr noundef nonnull align 4 dereferenceable(8) %7)
  ret i64 %8
}

; Function Attrs: mustprogress nounwind uwtable
define linkonce_odr noundef ptr @_ZN32pxrInternal_v0_24__pxrReserved__19Tf_DebugGetEnumNameENS_26HD_BPRIM_ADDED__DebugCodesE(i32 noundef %0) #5 comdat {
  %2 = alloca i32, align 4
  %3 = alloca [36 x ptr], align 16
  store i32 %0, ptr %2, align 4
  call void @llvm.memcpy.p0.p0.i64(ptr align 16 %3, ptr align 16 @__const._ZN32pxrInternal_v0_24__pxrReserved__19Tf_DebugGetEnumNameENS_26HD_BPRIM_ADDED__DebugCodesE.CStrings, i64 288, i1 false)
  %4 = load i32, ptr %2, align 4
  %5 = sext i32 %4 to i64
  %6 = getelementptr inbounds [36 x ptr], ptr %3, i64 0, i64 %5
  %7 = load ptr, ptr %6, align 8
  ret ptr %7
}

; Function Attrs: mustprogress nounwind uwtable
define linkonce_odr noundef i32 @_ZNKSt6atomicIN32pxrInternal_v0_24__pxrReserved__7TfDebug10_NodeStateEE4loadESt12memory_order(ptr noundef nonnull align 4 dereferenceable(4) %0, i32 noundef %1) #5 comdat align 2 {
  %3 = alloca ptr, align 8
  %4 = alloca i32, align 4
  %5 = alloca [4 x i8], align 4
  %6 = alloca ptr, align 8
  store ptr %0, ptr %3, align 8
  store i32 %1, ptr %4, align 4
  %7 = load ptr, ptr %3, align 8
  %8 = getelementptr inbounds [4 x i8], ptr %5, i64 0, i64 0
  store ptr %8, ptr %6, align 8
  %9 = getelementptr inbounds nuw %"struct.std::atomic.160", ptr %7, i32 0, i32 0
  %10 = load i32, ptr %4, align 4
  %11 = load ptr, ptr %6, align 8
  switch i32 %10, label %12 [
    i32 1, label %14
    i32 2, label %14
    i32 5, label %16
  ]

12:                                               ; preds = %2
  %13 = load atomic i32, ptr %9 monotonic, align 4
  store i32 %13, ptr %11, align 4
  br label %18

14:                                               ; preds = %2, %2
  %15 = load atomic i32, ptr %9 acquire, align 4
  store i32 %15, ptr %11, align 4
  br label %18

16:                                               ; preds = %2
  %17 = load atomic i32, ptr %9 seq_cst, align 4
  store i32 %17, ptr %11, align 4
  br label %18

18:                                               ; preds = %16, %14, %12
  %19 = load ptr, ptr %6, align 8
  %20 = load i32, ptr %19, align 4
  ret i32 %20
}

; Function Attrs: mustprogress nounwind uwtable
define linkonce_odr noundef nonnull align 4 dereferenceable(4) ptr @_ZN32pxrInternal_v0_24__pxrReserved__7TfDebug8_GetNodeINS_26HD_BPRIM_ADDED__DebugCodesEEERNS0_5_NodeET_(i32 noundef %0) #5 comdat align 2 {
  %2 = alloca i32, align 4
  store i32 %0, ptr %2, align 4
  %3 = load i32, ptr %2, align 4
  %4 = sext i32 %3 to i64
  %5 = getelementptr inbounds [36 x %"struct.pxrInternal_v0_24__pxrReserved__::TfDebug::_Node"], ptr @_ZN32pxrInternal_v0_24__pxrReserved__7TfDebug5_DataINS_26HD_BPRIM_ADDED__DebugCodesEE5nodesE, i64 0, i64 %4
  ret ptr %5
}

; Function Attrs: mustprogress uwtable
define linkonce_odr noundef i64 @_ZN32pxrInternal_v0_24__pxrReserved__9TfHashMapINS_7SdfPathEjNS1_4HashESt8equal_toIS1_ESaISt4pairIKS1_jEEE5eraseERS6_(ptr noundef nonnull align 8 dereferenceable(56) %0, ptr noundef nonnull align 4 dereferenceable(8) %1) #4 comdat align 2 {
  %3 = alloca ptr, align 8
  %4 = alloca ptr, align 8
  store ptr %0, ptr %3, align 8
  store ptr %1, ptr %4, align 8
  %5 = load ptr, ptr %3, align 8
  %6 = load ptr, ptr %4, align 8
  %7 = call noundef i64 @_ZNSt13unordered_mapIN32pxrInternal_v0_24__pxrReserved__7SdfPathEjNS1_4HashESt8equal_toIS1_ESaISt4pairIKS1_jEEE5eraseERS6_(ptr noundef nonnull align 8 dereferenceable(56) %5, ptr noundef nonnull align 4 dereferenceable(8) %6)
  ret i64 %7
}

; Function Attrs: mustprogress uwtable
define linkonce_odr noundef zeroext i1 @_ZN32pxrInternal_v0_24__pxrReserved__7TfDebug9IsEnabledINS_26HD_BPRIM_ADDED__DebugCodesEEEbT_(i32 noundef %0) #4 comdat align 2 {
  %2 = alloca i32, align 4
  %3 = alloca ptr, align 8
  %4 = alloca i32, align 4
  store i32 %0, ptr %2, align 4
  %5 = load i32, ptr %2, align 4
  %6 = call noundef nonnull align 4 dereferenceable(4) ptr @_ZN32pxrInternal_v0_24__pxrReserved__7TfDebug8_GetNodeINS_26HD_BPRIM_ADDED__DebugCodesEEERNS0_5_NodeET_(i32 noundef %5)
  store ptr %6, ptr %3, align 8
  %7 = load ptr, ptr %3, align 8
  %8 = getelementptr inbounds nuw %"struct.pxrInternal_v0_24__pxrReserved__::TfDebug::_Node", ptr %7, i32 0, i32 0
  %9 = call noundef i32 @_ZNKSt6atomicIN32pxrInternal_v0_24__pxrReserved__7TfDebug10_NodeStateEE4loadESt12memory_order(ptr noundef nonnull align 4 dereferenceable(4) %8, i32 noundef 5) #3
  store i32 %9, ptr %4, align 4
  %10 = load i32, ptr %4, align 4
  %11 = icmp eq i32 %10, 0
  br i1 %11, label %12, label %20

12:                                               ; preds = %1
  %13 = load i32, ptr %2, align 4
  %14 = call noundef nonnull align 4 dereferenceable(4) ptr @_ZN32pxrInternal_v0_24__pxrReserved__7TfDebug8_GetNodeINS_26HD_BPRIM_ADDED__DebugCodesEEERNS0_5_NodeET_(i32 noundef %13)
  %15 = load i32, ptr %2, align 4
  %16 = call noundef ptr @_ZN32pxrInternal_v0_24__pxrReserved__19Tf_DebugGetEnumNameENS_26HD_BPRIM_ADDED__DebugCodesE(i32 noundef %15)
  call void @_ZN32pxrInternal_v0_24__pxrReserved__7TfDebug15_InitializeNodeERNS0_5_NodeEPKc(ptr noundef nonnull align 4 dereferenceable(4) %14, ptr noundef %16)
  %17 = load ptr, ptr %3, align 8
  %18 = getelementptr inbounds nuw %"struct.pxrInternal_v0_24__pxrReserved__::TfDebug::_Node", ptr %17, i32 0, i32 0
  %19 = call noundef i32 @_ZNKSt6atomicIN32pxrInternal_v0_24__pxrReserved__7TfDebug10_NodeStateEE4loadESt12memory_order(ptr noundef nonnull align 4 dereferenceable(4) %18, i32 noundef 5) #3
  store i32 %19, ptr %4, align 4
  br label %20

20:                                               ; preds = %12, %1
  %21 = load i32, ptr %4, align 4
  %22 = icmp eq i32 %21, 2
  ret i1 %22
}

; Function Attrs: mustprogress uwtable
define void @_ZN32pxrInternal_v0_24__pxrReserved__15HdChangeTracker11TaskRemovedERKNS_7SdfPathE(ptr noundef nonnull align 8 dereferenceable(3328) %0, ptr noundef nonnull align 4 dereferenceable(8) %1) #4 align 2 {
  %3 = alloca ptr, align 8
  %4 = alloca ptr, align 8
  store ptr %0, ptr %3, align 8
  store ptr %1, ptr %4, align 8
  %5 = load ptr, ptr %3, align 8
  %6 = call noundef zeroext i1 @_ZN32pxrInternal_v0_24__pxrReserved__7TfDebug9IsEnabledINS_26HD_BPRIM_ADDED__DebugCodesEEEbT_(i32 noundef 34)
  br i1 %6, label %8, label %7

7:                                                ; preds = %2
  br label %11

8:                                                ; preds = %2
  %9 = load ptr, ptr %4, align 8
  %10 = call noundef ptr @_ZNK32pxrInternal_v0_24__pxrReserved__7SdfPath7GetTextEv(ptr noundef nonnull align 4 dereferenceable(8) %9)
  call void (ptr, ...) @_ZN32pxrInternal_v0_24__pxrReserved__7TfDebug6Helper3MsgEPKcz(ptr noundef @.str.18, ptr noundef %10)
  br label %11

11:                                               ; preds = %8, %7
  %12 = getelementptr inbounds nuw %"class.pxrInternal_v0_24__pxrReserved__::HdChangeTracker", ptr %5, i32 0, i32 3
  %13 = load ptr, ptr %4, align 8
  %14 = call noundef i64 @_ZN32pxrInternal_v0_24__pxrReserved__9TfHashMapINS_7SdfPathEjNS1_4HashESt8equal_toIS1_ESaISt4pairIKS1_jEEE5eraseERS6_(ptr noundef nonnull align 8 dereferenceable(56) %12, ptr noundef nonnull align 4 dereferenceable(8) %13)
  %15 = getelementptr inbounds nuw %"class.pxrInternal_v0_24__pxrReserved__::HdChangeTracker", ptr %5, i32 0, i32 18
  %16 = load i32, ptr %15, align 4
  %17 = add i32 %16, 1
  store i32 %17, ptr %15, align 4
  ret void
}